target datalayout = "e-m:e-p270:32:32-p271:32:32-p272:64:64-i64:64-i128:128-f80:128-n8:16:32:64-S128"
target triple = "x86_64-pc-linux-gnu"

%struct.AVCodecContext = type { ptr, i32, i32, ptr, i32, i32, ptr, ptr, ptr, i64, i32, i32, ptr, i32, %struct.AVRational, %struct.AVRational, %struct.AVRational, i32, i32, i32, i32, i32, %struct.AVRational, i32, i32, i32, i32, i32, i32, i32, i32, i32, i32, i32, ptr, ptr, i32, float, float, float, float, float, float, float, float, float, i32, i32, i32, i32, i32, i32, i32, i32, i32, i32, i32, i32, ptr, ptr, ptr, i32, i32, i32, i32, i32, i32, i32, i32, i32, i32, %struct.AVChannelLayout, i32, i32, i32, i32, i32, i32, i32, i32, ptr, i32, i32, i32, float, float, i32, i32, i32, i32, i32, ptr, i64, i64, float, float, i32, i32, ptr, ptr, i32, i32, i32, i32, i32, ptr, ptr, ptr, ptr, i32, i32, [8 x i64], i32, i32, i32, i32, i32, i32, i32, ptr, ptr, i32, i32, i32, i32, i32, i32, i32, i32, i32, i32, ptr, ptr, i32, i32, ptr, ptr, ptr, ptr, i32, i32, i64, i32, i32, i64, ptr, i64, ptr, i32, ptr, i32 }
%struct.AVRational = type { i32, i32 }
%struct.AVChannelLayout = type { i32, i32, %union.anon.2, ptr }
%union.anon.2 = type { i64 }
%struct.VVCContext = type { ptr, ptr, %struct.CodedBitstreamFragment, %struct.VVCParamSets, i32, i32, i32, i32, i32, i32, i32, i16, i16, ptr, ptr, i32, i64, i32 }
%struct.CodedBitstreamFragment = type { ptr, i64, i64, ptr, i32, i32, ptr }
%struct.VVCParamSets = type { [16 x ptr], [64 x ptr], [8 x ptr], [4 x ptr], [8 x ptr], i16 }
%struct.VVCFrameContext = type { ptr, [17 x %struct.VVCFrame], ptr, ptr, %struct.VVCFrameParamSets, ptr, i32, i32, ptr, %struct.VVCDSPContext, %struct.VideoDSPContext, ptr, i64, ptr, ptr, ptr, ptr, %struct.anon }
%struct.VVCFrame = type { ptr, ptr, ptr, ptr, ptr, ptr, i32, i32, i32, %struct.VVCWindow, i32, i32, ptr, ptr, i16, i8, ptr }
%struct.VVCWindow = type { i16, i16, i16, i16 }
%struct.VVCFrameParamSets = type { ptr, ptr, %struct.VVCPH, [8 x ptr], %struct.VVCLMCS, ptr }
%struct.VVCPH = type { ptr, ptr, i32, i32, i8, [3 x i16], i8, [3 x i16], %struct.PredWeightTable }
%struct.PredWeightTable = type { [2 x i8], [2 x i8], [2 x [2 x [15 x i8]]], [2 x [3 x [15 x i16]]], [2 x [3 x [15 x i16]]] }
%struct.VVCLMCS = type { i8, i8, %union.anon.0, %union.anon.0, [17 x i16], [16 x i16] }
%union.anon.0 = type { [4096 x i16] }
%struct.VVCDSPContext = type { %struct.VVCInterDSPContext, %struct.VVCIntraDSPContext, %struct.VVCItxDSPContext, %struct.VVCLMCSDSPContext, %struct.VVCLFDSPContext, %struct.VVCSAODSPContext, %struct.VVCALFDSPContext }
%struct.VVCInterDSPContext = type { [2 x [7 x [2 x [2 x ptr]]]], [2 x [7 x [2 x [2 x ptr]]]], [2 x [7 x [2 x [2 x ptr]]]], [2 x [7 x ptr]], [2 x [7 x ptr]], [2 x [7 x ptr]], ptr, ptr, ptr, ptr, ptr, ptr, ptr, ptr, ptr, ptr, ptr, [2 x [2 x ptr]] }
%struct.VVCIntraDSPContext = type { ptr, ptr, ptr, ptr, ptr, ptr, ptr, ptr, ptr, ptr }
%struct.VVCItxDSPContext = type { ptr, ptr, [3 x [6 x ptr]], ptr, ptr }
%struct.VVCLMCSDSPContext = type { ptr }
%struct.VVCLFDSPContext = type { [2 x ptr], [2 x ptr], [2 x ptr] }
%struct.VVCSAODSPContext = type { [9 x ptr], [9 x ptr], [2 x ptr] }
%struct.VVCALFDSPContext = type { [2 x ptr], ptr, ptr, ptr }
%struct.VideoDSPContext = type { ptr, ptr }
%struct.anon = type { ptr, ptr, ptr, ptr, [2 x ptr], [2 x ptr], [2 x ptr], [2 x ptr], [2 x ptr], [3 x ptr], ptr, ptr, [2 x ptr], ptr, ptr, [2 x ptr], ptr, ptr, ptr, [2 x ptr], ptr, [3 x ptr], ptr, [2 x ptr], [2 x ptr], [2 x ptr], [2 x [3 x ptr]], [2 x ptr], [2 x ptr], [3 x ptr], [3 x ptr], [3 x [2 x ptr]], [3 x [2 x ptr]], ptr, ptr, ptr, [3 x ptr], %struct.anon.1 }
%struct.anon.1 = type { i32, i32, i32, i32, i32, i32, i32, i32, i32, i32, i32, i32 }

@vvc_decode_init.init_static_once = internal global i32 0, align 4

; Function Attrs: cold nounwind optsize uwtable
define internal i32 @vvc_decode_init(ptr noundef %0) #1 {
  %2 = alloca i32, align 4
  %3 = alloca ptr, align 8
  %4 = alloca ptr, align 8
  %5 = alloca i32, align 4
  %6 = alloca i32, align 4
  %7 = alloca i32, align 4
  %8 = alloca i32, align 4
  %9 = alloca i32, align 4
  %10 = alloca i32, align 4
  %11 = alloca ptr, align 8
  store ptr %0, ptr %3, align 8, !tbaa !27
  call void @llvm.lifetime.start.p0(i64 8, ptr %4) #9
  %12 = load ptr, ptr %3, align 8, !tbaa !27
  %13 = getelementptr inbounds nuw %struct.AVCodecContext, ptr %12, i32 0, i32 6
  %14 = load ptr, ptr %13, align 8, !tbaa !29
  store ptr %14, ptr %4, align 8, !tbaa !46
  call void @llvm.lifetime.start.p0(i64 4, ptr %5) #9
  %15 = call i32 @av_cpu_count()
  store i32 %15, ptr %5, align 4, !tbaa !10
  call void @llvm.lifetime.start.p0(i64 4, ptr %6) #9
  %16 = load i32, ptr %5, align 4, !tbaa !10
  %17 = icmp sgt i32 %16, 16
  br i1 %17, label %18, label %19

18:                                               ; preds = %1
  br label %21

19:                                               ; preds = %1
  %20 = load i32, ptr %5, align 4, !tbaa !10
  br label %21

21:                                               ; preds = %19, %18
  %22 = phi i32 [ 16, %18 ], [ %20, %19 ]
  store i32 %22, ptr %6, align 4, !tbaa !10
  call void @llvm.lifetime.start.p0(i64 4, ptr %7) #9
  %23 = load ptr, ptr %3, align 8, !tbaa !27
  %24 = getelementptr inbounds nuw %struct.AVCodecContext, ptr %23, i32 0, i32 116
  %25 = load i32, ptr %24, align 8, !tbaa !48
  %26 = icmp ne i32 %25, 0
  br i1 %26, label %27, label %31

27:                                               ; preds = %21
  %28 = load ptr, ptr %3, align 8, !tbaa !27
  %29 = getelementptr inbounds nuw %struct.AVCodecContext, ptr %28, i32 0, i32 116
  %30 = load i32, ptr %29, align 8, !tbaa !48
  br label %33

31:                                               ; preds = %21
  %32 = load i32, ptr %6, align 4, !tbaa !10
  br label %33

33:                                               ; preds = %31, %27
  %34 = phi i32 [ %30, %27 ], [ %32, %31 ]
  store i32 %34, ptr %7, align 4, !tbaa !10
  call void @llvm.lifetime.start.p0(i64 4, ptr %8) #9
  %35 = load ptr, ptr %3, align 8, !tbaa !27
  %36 = load ptr, ptr %4, align 8, !tbaa !46
  %37 = getelementptr inbounds nuw %struct.VVCContext, ptr %36, i32 0, i32 0
  store ptr %35, ptr %37, align 8, !tbaa !49
  %38 = load ptr, ptr %4, align 8, !tbaa !46
  %39 = getelementptr inbounds nuw %struct.VVCContext, ptr %38, i32 0, i32 1
  %40 = load ptr, ptr %3, align 8, !tbaa !27
  %41 = call i32 @ff_cbs_init(ptr noundef %39, i32 noundef 196, ptr noundef %40)
  store i32 %41, ptr %8, align 4, !tbaa !10
  %42 = load i32, ptr %8, align 4, !tbaa !10
  %43 = icmp ne i32 %42, 0
  br i1 %43, label %44, label %46

44:                                               ; preds = %33
  %45 = load i32, ptr %8, align 4, !tbaa !10
  store i32 %45, ptr %2, align 4
  store i32 1, ptr %9, align 4
  br label %146

46:                                               ; preds = %33
  %47 = load ptr, ptr %3, align 8, !tbaa !27
  %48 = getelementptr inbounds nuw %struct.AVCodecContext, ptr %47, i32 0, i32 13
  %49 = load i32, ptr %48, align 8, !tbaa !57
  %50 = icmp sgt i32 %49, 0
  br i1 %50, label %51, label %69

51:                                               ; preds = %46
  %52 = load ptr, ptr %3, align 8, !tbaa !27
  %53 = getelementptr inbounds nuw %struct.AVCodecContext, ptr %52, i32 0, i32 12
  %54 = load ptr, ptr %53, align 8, !tbaa !58
  %55 = icmp ne ptr %54, null
  br i1 %55, label %56, label %69

56:                                               ; preds = %51
  %57 = load ptr, ptr %4, align 8, !tbaa !46
  %58 = getelementptr inbounds nuw %struct.VVCContext, ptr %57, i32 0, i32 1
  %59 = load ptr, ptr %58, align 8, !tbaa !59
  %60 = load ptr, ptr %4, align 8, !tbaa !46
  %61 = getelementptr inbounds nuw %struct.VVCContext, ptr %60, i32 0, i32 2
  %62 = load ptr, ptr %3, align 8, !tbaa !27
  %63 = call i32 @ff_cbs_read_extradata_from_codec(ptr noundef %59, ptr noundef %61, ptr noundef %62)
  store i32 %63, ptr %8, align 4, !tbaa !10
  %64 = load i32, ptr %8, align 4, !tbaa !10
  %65 = icmp slt i32 %64, 0
  br i1 %65, label %66, label %68

66:                                               ; preds = %56
  %67 = load i32, ptr %8, align 4, !tbaa !10
  store i32 %67, ptr %2, align 4
  store i32 1, ptr %9, align 4
  br label %146

68:                                               ; preds = %56
  br label %69

69:                                               ; preds = %68, %51, %46
  %70 = load ptr, ptr %3, align 8, !tbaa !27
  %71 = getelementptr inbounds nuw %struct.AVCodecContext, ptr %70, i32 0, i32 10
  %72 = load i32, ptr %71, align 8, !tbaa !60
  %73 = and i32 %72, 524288
  %74 = icmp ne i32 %73, 0
  br i1 %74, label %75, label %76

75:                                               ; preds = %69
  br label %78

76:                                               ; preds = %69
  %77 = load i32, ptr %6, align 4, !tbaa !10
  br label %78

78:                                               ; preds = %76, %75
  %79 = phi i32 [ 1, %75 ], [ %77, %76 ]
  %80 = load ptr, ptr %4, align 8, !tbaa !46
  %81 = getelementptr inbounds nuw %struct.VVCContext, ptr %80, i32 0, i32 15
  store i32 %79, ptr %81, align 8, !tbaa !61
  %82 = load ptr, ptr %4, align 8, !tbaa !46
  %83 = getelementptr inbounds nuw %struct.VVCContext, ptr %82, i32 0, i32 15
  %84 = load i32, ptr %83, align 8, !tbaa !61
  %85 = sext i32 %84 to i64
  %86 = call noalias ptr @av_calloc(i64 noundef %85, i64 noundef 21984)
  %87 = load ptr, ptr %4, align 8, !tbaa !46
  %88 = getelementptr inbounds nuw %struct.VVCContext, ptr %87, i32 0, i32 14
  store ptr %86, ptr %88, align 8, !tbaa !62
  %89 = load ptr, ptr %4, align 8, !tbaa !46
  %90 = getelementptr inbounds nuw %struct.VVCContext, ptr %89, i32 0, i32 14
  %91 = load ptr, ptr %90, align 8, !tbaa !62
  %92 = icmp ne ptr %91, null
  br i1 %92, label %94, label %93

93:                                               ; preds = %78
  store i32 -12, ptr %2, align 4
  store i32 1, ptr %9, align 4
  br label %146

94:                                               ; preds = %78
  call void @llvm.lifetime.start.p0(i64 4, ptr %10) #9
  store i32 0, ptr %10, align 4, !tbaa !10
  br label %95

95:                                               ; preds = %120, %94
  %96 = load i32, ptr %10, align 4, !tbaa !10
  %97 = load ptr, ptr %4, align 8, !tbaa !46
  %98 = getelementptr inbounds nuw %struct.VVCContext, ptr %97, i32 0, i32 15
  %99 = load i32, ptr %98, align 8, !tbaa !61
  %100 = icmp slt i32 %96, %99
  br i1 %100, label %102, label %101

101:                                              ; preds = %95
  store i32 2, ptr %9, align 4
  br label %123

102:                                              ; preds = %95
  call void @llvm.lifetime.start.p0(i64 8, ptr %11) #9
  %103 = load ptr, ptr %4, align 8, !tbaa !46
  %104 = getelementptr inbounds nuw %struct.VVCContext, ptr %103, i32 0, i32 14
  %105 = load ptr, ptr %104, align 8, !tbaa !62
  %106 = load i32, ptr %10, align 4, !tbaa !10
  %107 = sext i32 %106 to i64
  %108 = getelementptr inbounds %struct.VVCFrameContext, ptr %105, i64 %107
  store ptr %108, ptr %11, align 8, !tbaa !4
  %109 = load ptr, ptr %11, align 8, !tbaa !4
  %110 = load ptr, ptr %3, align 8, !tbaa !27
  %111 = call i32 @frame_context_init(ptr noundef %109, ptr noundef %110) #10
  store i32 %111, ptr %8, align 4, !tbaa !10
  %112 = load i32, ptr %8, align 4, !tbaa !10
  %113 = icmp slt i32 %112, 0
  br i1 %113, label %114, label %116

114:                                              ; preds = %102
  %115 = load i32, ptr %8, align 4, !tbaa !10
  store i32 %115, ptr %2, align 4
  store i32 1, ptr %9, align 4
  br label %117

116:                                              ; preds = %102
  store i32 0, ptr %9, align 4
  br label %117

117:                                              ; preds = %116, %114
  call void @llvm.lifetime.end.p0(i64 8, ptr %11) #9
  %118 = load i32, ptr %9, align 4
  switch i32 %118, label %123 [
    i32 0, label %119
  ]

119:                                              ; preds = %117
  br label %120

120:                                              ; preds = %119
  %121 = load i32, ptr %10, align 4, !tbaa !10
  %122 = add nsw i32 %121, 1
  store i32 %122, ptr %10, align 4, !tbaa !10
  br label %95, !llvm.loop !63

123:                                              ; preds = %117, %101
  call void @llvm.lifetime.end.p0(i64 4, ptr %10) #9
  %124 = load i32, ptr %9, align 4
  switch i32 %124, label %146 [
    i32 2, label %125
  ]

125:                                              ; preds = %123
  %126 = load i32, ptr %7, align 4, !tbaa !10
  %127 = icmp eq i32 %126, 1
  br i1 %127, label %128, label %129

128:                                              ; preds = %125
  store i32 0, ptr %7, align 4, !tbaa !10
  br label %129

129:                                              ; preds = %128, %125
  %130 = load ptr, ptr %4, align 8, !tbaa !46
  %131 = load i32, ptr %7, align 4, !tbaa !10
  %132 = call ptr @ff_vvc_executor_alloc(ptr noundef %130, i32 noundef %131)
  %133 = load ptr, ptr %4, align 8, !tbaa !46
  %134 = getelementptr inbounds nuw %struct.VVCContext, ptr %133, i32 0, i32 13
  store ptr %132, ptr %134, align 8, !tbaa !64
  %135 = load ptr, ptr %4, align 8, !tbaa !46
  %136 = getelementptr inbounds nuw %struct.VVCContext, ptr %135, i32 0, i32 13
  %137 = load ptr, ptr %136, align 8, !tbaa !64
  %138 = icmp ne ptr %137, null
  br i1 %138, label %140, label %139

139:                                              ; preds = %129
  store i32 -12, ptr %2, align 4
  store i32 1, ptr %9, align 4
  br label %146

140:                                              ; preds = %129
  %141 = load ptr, ptr %4, align 8, !tbaa !46
  %142 = getelementptr inbounds nuw %struct.VVCContext, ptr %141, i32 0, i32 6
  store i32 1, ptr %142, align 8, !tbaa !65
  %143 = load ptr, ptr %4, align 8, !tbaa !46
  %144 = getelementptr inbounds nuw %struct.VVCContext, ptr %143, i32 0, i32 10
  store i32 -2147483648, ptr %144, align 8, !tbaa !66
  %145 = call i32 @pthread_once(ptr noundef @vvc_decode_init.init_static_once, ptr noundef @init_default_scale_m)
  store i32 0, ptr %2, align 4
  store i32 1, ptr %9, align 4
  br label %146

146:                                              ; preds = %140, %139, %123, %93, %66, %44
  call void @llvm.lifetime.end.p0(i64 4, ptr %8) #9
  call void @llvm.lifetime.end.p0(i64 4, ptr %7) #9
  call void @llvm.lifetime.end.p0(i64 4, ptr %6) #9
  call void @llvm.lifetime.end.p0(i64 4, ptr %5) #9
  call void @llvm.lifetime.end.p0(i64 8, ptr %4) #9
  %147 = load i32, ptr %2, align 4
  ret i32 %147
}