; Function Attrs: cold nounwind optsize uwtable
define internal i32 @vvc_decode_init(ptr noundef %0) #1 {
  %2 = getelementptr inbounds nuw i8, ptr %0, i64 32
  %3 = load ptr, ptr %2, align 8, !tbaa !20
  %4 = tail call i32 @av_cpu_count() #10
  %5 = tail call i32 @llvm.smin.i32(i32 %4, i32 16)
  %6 = getelementptr inbounds nuw i8, ptr %0, i64 656
  %7 = load i32, ptr %6, align 8, !tbaa !37
  %.not = icmp eq i32 %7, 0
  %. = select i1 %.not, i32 %5, i32 %7
  store ptr %0, ptr %3, align 8, !tbaa !38
  %8 = getelementptr inbounds nuw i8, ptr %3, i64 8
  %9 = tail call i32 @ff_cbs_init(ptr noundef nonnull %8, i32 noundef 196, ptr noundef %0) #10
  %.not51 = icmp eq i32 %9, 0
  br i1 %.not51, label %10, label %.thread

10:                                               ; preds = %1
  %11 = getelementptr inbounds nuw i8, ptr %0, i64 80
  %12 = load i32, ptr %11, align 8, !tbaa !48
  %13 = icmp sgt i32 %12, 0
  br i1 %13, label %14, label %22

14:                                               ; preds = %10
  %15 = getelementptr inbounds nuw i8, ptr %0, i64 72
  %16 = load ptr, ptr %15, align 8, !tbaa !49
  %.not52 = icmp eq ptr %16, null
  br i1 %.not52, label %22, label %17

17:                                               ; preds = %14
  %18 = load ptr, ptr %8, align 8, !tbaa !50
  %19 = getelementptr inbounds nuw i8, ptr %3, i64 16
  %20 = tail call i32 @ff_cbs_read_extradata_from_codec(ptr noundef %18, ptr noundef nonnull %19, ptr noundef nonnull %0) #10
  %21 = icmp slt i32 %20, 0
  br i1 %21, label %.thread, label %22

22:                                               ; preds = %17, %14, %10
  %23 = getelementptr inbounds nuw i8, ptr %0, i64 64
  %24 = load i32, ptr %23, align 8, !tbaa !51
  %25 = and i32 %24, 524288
  %.not53 = icmp eq i32 %25, 0
  %26 = select i1 %.not53, i32 %5, i32 1
  %27 = getelementptr inbounds nuw i8, ptr %3, i64 920
  store i32 %26, ptr %27, align 8, !tbaa !52
  %28 = sext i32 %26 to i64
  %29 = tail call noalias ptr @av_calloc(i64 noundef %28, i64 noundef 21984) #10
  %30 = getelementptr inbounds nuw i8, ptr %3, i64 912
  store ptr %29, ptr %30, align 8, !tbaa !53
  %.not54 = icmp eq ptr %29, null
  br i1 %.not54, label %.thread, label %.preheader

.preheader:                                       ; preds = %22
  %31 = load i32, ptr %27, align 8, !tbaa !52
  %.not5558 = icmp sgt i32 %31, 0
  br i1 %.not5558, label %.lr.ph, label %._crit_edge

32:                                               ; preds = %.lr.ph
  %indvars.iv.next = add nuw nsw i64 %indvars.iv, 1
  %33 = load i32, ptr %27, align 8, !tbaa !52
  %34 = sext i32 %33 to i64
  %.not55 = icmp slt i64 %indvars.iv.next, %34
  br i1 %.not55, label %.lr.ph, label %._crit_edge, !llvm.loop !54

.lr.ph:                                           ; preds = %.preheader, %32
  %indvars.iv = phi i64 [ %indvars.iv.next, %32 ], [ 0, %.preheader ]
  %35 = load ptr, ptr %30, align 8, !tbaa !53
  %36 = getelementptr inbounds nuw %struct.VVCFrameContext, ptr %35, i64 %indvars.iv
  %37 = tail call fastcc i32 @frame_context_init(ptr noundef %36, ptr noundef %0) #11
  %38 = icmp sgt i32 %37, -1
  br i1 %38, label %32, label %.thread

._crit_edge:                                      ; preds = %32, %.preheader
  %39 = icmp eq i32 %., 1
  %spec.store.select = select i1 %39, i32 0, i32 %.
  %40 = tail call ptr @ff_vvc_executor_alloc(ptr noundef nonnull %3, i32 noundef %spec.store.select) #10
  %41 = getelementptr inbounds nuw i8, ptr %3, i64 904
  store ptr %40, ptr %41, align 8, !tbaa !55
  %.not56 = icmp eq ptr %40, null
  br i1 %.not56, label %.thread, label %42

42:                                               ; preds = %._crit_edge
  %43 = getelementptr inbounds nuw i8, ptr %3, i64 880
  store i32 1, ptr %43, align 8, !tbaa !56
  %44 = getelementptr inbounds nuw i8, ptr %3, i64 896
  store i32 -2147483648, ptr %44, align 8, !tbaa !57
  %45 = tail call i32 @pthread_once(ptr noundef nonnull @vvc_decode_init.init_static_once, ptr noundef nonnull @init_default_scale_m) #10
  br label %.thread

.thread:                                          ; preds = %.lr.ph, %._crit_edge, %22, %17, %1, %42
  %.0 = phi i32 [ 0, %42 ], [ %9, %1 ], [ %20, %17 ], [ -12, %22 ], [ -12, %._crit_edge ], [ %37, %.lr.ph ]
  ret i32 %.0
}